target datalayout = "e-m:e-p270:32:32-p271:32:32-p272:64:64-i64:64-i128:128-f80:128-n8:16:32:64-S128"
target triple = "x86_64-pc-linux-gnu"

%"class.OpenColorIO_v2_5dev::OpCPU" = type { ptr }
%"class.OpenColorIO_v2_5dev::Renderer_ACES_RedMod10_Fwd" = type <{ %"class.OpenColorIO_v2_5dev::OpCPU", float, float, float, [4 x i8] }>

; Function Attrs: inlinehint mustprogress nounwind uwtable
define linkonce_odr noundef float @_ZSt5atan2ff(float noundef %0, float noundef %1) #10 comdat {
  %3 = alloca float, align 4
  %4 = alloca float, align 4
  store float %0, ptr %3, align 4, !tbaa !31
  store float %1, ptr %4, align 4, !tbaa !31
  %5 = load float, ptr %3, align 4, !tbaa !31
  %6 = load float, ptr %4, align 4, !tbaa !31
  %7 = call float @atan2f(float noundef %5, float noundef %6) #3, !tbaa !34
  ret float %7
}

; Function Attrs: inlinehint mustprogress nounwind uwtable
define linkonce_odr noundef float @_ZSt4sqrtf(float noundef %0) #10 comdat {
  %2 = alloca float, align 4
  store float %0, ptr %2, align 4, !tbaa !31
  %3 = load float, ptr %2, align 4, !tbaa !31
  %4 = call float @sqrtf(float noundef %3) #3, !tbaa !34
  ret float %4
}

; Function Attrs: inlinehint mustprogress uwtable
define linkonce_odr hidden noundef float @_ZN19OpenColorIO_v2_5dev13CalcHueWeightEffff(float noundef %0, float noundef %1, float noundef %2, float noundef %3) #8 comdat {
  %5 = alloca float, align 4
  %6 = alloca float, align 4
  %7 = alloca float, align 4
  %8 = alloca float, align 4
  %9 = alloca float, align 4
  %10 = alloca float, align 4
  %11 = alloca float, align 4
  %12 = alloca float, align 4
  %13 = alloca i32, align 4
  %14 = alloca float, align 4
  %15 = alloca float, align 4
  %16 = alloca ptr, align 8
  store float %0, ptr %5, align 4, !tbaa !31
  store float %1, ptr %6, align 4, !tbaa !31
  store float %2, ptr %7, align 4, !tbaa !31
  store float %3, ptr %8, align 4, !tbaa !31
  call void @llvm.lifetime.start.p0(i64 4, ptr %9) #3
  %17 = load float, ptr %5, align 4, !tbaa !31
  %18 = load float, ptr %6, align 4, !tbaa !31
  %19 = load float, ptr %7, align 4, !tbaa !31
  %20 = fadd float %18, %19
  %21 = fneg float %20
  %22 = call float @llvm.fmuladd.f32(float 2.000000e+00, float %17, float %21)
  store float %22, ptr %9, align 4, !tbaa !31
  call void @llvm.lifetime.start.p0(i64 4, ptr %10) #3
  %23 = load float, ptr %6, align 4, !tbaa !31
  %24 = load float, ptr %7, align 4, !tbaa !31
  %25 = fsub float %23, %24
  %26 = fmul float 0x3FFBB67AE0000000, %25
  store float %26, ptr %10, align 4, !tbaa !31
  call void @llvm.lifetime.start.p0(i64 4, ptr %11) #3
  %27 = load float, ptr %10, align 4, !tbaa !31
  %28 = load float, ptr %9, align 4, !tbaa !31
  %29 = call noundef float @_ZSt5atan2ff(float noundef %27, float noundef %28)
  store float %29, ptr %11, align 4, !tbaa !31
  call void @llvm.lifetime.start.p0(i64 4, ptr %12) #3
  %30 = load float, ptr %11, align 4, !tbaa !31
  %31 = load float, ptr %8, align 4, !tbaa !31
  %32 = call float @llvm.fmuladd.f32(float %30, float %31, float 2.000000e+00)
  store float %32, ptr %12, align 4, !tbaa !31
  call void @llvm.lifetime.start.p0(i64 4, ptr %13) #3
  %33 = load float, ptr %12, align 4, !tbaa !31
  %34 = fptosi float %33 to i32
  store i32 %34, ptr %13, align 4, !tbaa !34
  call void @llvm.lifetime.start.p0(i64 4, ptr %14) #3
  store float 0.000000e+00, ptr %14, align 4, !tbaa !31
  %35 = load i32, ptr %13, align 4, !tbaa !34
  %36 = icmp sge i32 %35, 0
  br i1 %36, label %37, label %67

37:                                               ; preds = %4
  %38 = load i32, ptr %13, align 4, !tbaa !34
  %39 = icmp slt i32 %38, 4
  br i1 %39, label %40, label %67

40:                                               ; preds = %37
  call void @llvm.lifetime.start.p0(i64 4, ptr %15) #3
  %41 = load float, ptr %12, align 4, !tbaa !31
  %42 = load i32, ptr %13, align 4, !tbaa !34
  %43 = sitofp i32 %42 to float
  %44 = fsub float %41, %43
  store float %44, ptr %15, align 4, !tbaa !31
  call void @llvm.lifetime.start.p0(i64 8, ptr %16) #3
  %45 = load i32, ptr %13, align 4, !tbaa !34
  %46 = sext i32 %45 to i64
  %47 = getelementptr inbounds [4 x [4 x float]], ptr @_ZZN19OpenColorIO_v2_5dev13CalcHueWeightEffffE2_M, i64 0, i64 %46
  %48 = getelementptr inbounds [4 x float], ptr %47, i64 0, i64 0
  store ptr %48, ptr %16, align 8, !tbaa !29
  %49 = load ptr, ptr %16, align 8, !tbaa !29
  %50 = getelementptr inbounds float, ptr %49, i64 3
  %51 = load float, ptr %50, align 4, !tbaa !31
  %52 = load float, ptr %15, align 4, !tbaa !31
  %53 = load ptr, ptr %16, align 8, !tbaa !29
  %54 = getelementptr inbounds float, ptr %53, i64 2
  %55 = load float, ptr %54, align 4, !tbaa !31
  %56 = load float, ptr %15, align 4, !tbaa !31
  %57 = load ptr, ptr %16, align 8, !tbaa !29
  %58 = getelementptr inbounds float, ptr %57, i64 1
  %59 = load float, ptr %58, align 4, !tbaa !31
  %60 = load float, ptr %15, align 4, !tbaa !31
  %61 = load ptr, ptr %16, align 8, !tbaa !29
  %62 = getelementptr inbounds float, ptr %61, i64 0
  %63 = load float, ptr %62, align 4, !tbaa !31
  %64 = call float @llvm.fmuladd.f32(float %60, float %63, float %59)
  %65 = call float @llvm.fmuladd.f32(float %56, float %64, float %55)
  %66 = call float @llvm.fmuladd.f32(float %52, float %65, float %51)
  store float %66, ptr %14, align 4, !tbaa !31
  call void @llvm.lifetime.end.p0(i64 8, ptr %16) #3
  call void @llvm.lifetime.end.p0(i64 4, ptr %15) #3
  br label %67

67:                                               ; preds = %40, %37, %4
  %68 = load float, ptr %14, align 4, !tbaa !31
  call void @llvm.lifetime.end.p0(i64 4, ptr %14) #3
  call void @llvm.lifetime.end.p0(i64 4, ptr %13) #3
  call void @llvm.lifetime.end.p0(i64 4, ptr %12) #3
  call void @llvm.lifetime.end.p0(i64 4, ptr %11) #3
  call void @llvm.lifetime.end.p0(i64 4, ptr %10) #3
  call void @llvm.lifetime.end.p0(i64 4, ptr %9) #3
  ret float %68
}

; Function Attrs: mustprogress uwtable
define hidden void @_ZNK19OpenColorIO_v2_5dev26Renderer_ACES_RedMod10_Inv5applyEPKvPvl(ptr noundef nonnull align 8 dereferenceable(20) %0, ptr noundef %1, ptr noundef %2, i64 noundef %3) unnamed_addr #6 align 2 {
  %5 = alloca ptr, align 8
  %6 = alloca ptr, align 8
  %7 = alloca ptr, align 8
  %8 = alloca i64, align 8
  %9 = alloca ptr, align 8
  %10 = alloca ptr, align 8
  %11 = alloca i64, align 8
  %12 = alloca float, align 4
  %13 = alloca float, align 4
  %14 = alloca float, align 4
  %15 = alloca float, align 4
  %16 = alloca float, align 4
  %17 = alloca float, align 4
  %18 = alloca float, align 4
  %19 = alloca float, align 4
  store ptr %0, ptr %5, align 8, !tbaa !46
  store ptr %1, ptr %6, align 8, !tbaa !26
  store ptr %2, ptr %7, align 8, !tbaa !26
  store i64 %3, ptr %8, align 8, !tbaa !27
  %20 = load ptr, ptr %5, align 8
  call void @llvm.lifetime.start.p0(i64 8, ptr %9) #3
  %21 = load ptr, ptr %6, align 8, !tbaa !26
  store ptr %21, ptr %9, align 8, !tbaa !29
  call void @llvm.lifetime.start.p0(i64 8, ptr %10) #3
  %22 = load ptr, ptr %7, align 8, !tbaa !26
  store ptr %22, ptr %10, align 8, !tbaa !29
  call void @llvm.lifetime.start.p0(i64 8, ptr %11) #3
  store i64 0, ptr %11, align 8, !tbaa !27
  br label %23

23:                                               ; preds = %114, %4
  %24 = load i64, ptr %11, align 8, !tbaa !27
  %25 = load i64, ptr %8, align 8, !tbaa !27
  %26 = icmp slt i64 %24, %25
  br i1 %26, label %28, label %27

27:                                               ; preds = %23
  call void @llvm.lifetime.end.p0(i64 8, ptr %11) #3
  br label %117

28:                                               ; preds = %23
  call void @llvm.lifetime.start.p0(i64 4, ptr %12) #3
  %29 = load ptr, ptr %9, align 8, !tbaa !29
  %30 = getelementptr inbounds float, ptr %29, i64 0
  %31 = load float, ptr %30, align 4, !tbaa !31
  store float %31, ptr %12, align 4, !tbaa !31
  call void @llvm.lifetime.start.p0(i64 4, ptr %13) #3
  %32 = load ptr, ptr %9, align 8, !tbaa !29
  %33 = getelementptr inbounds float, ptr %32, i64 1
  %34 = load float, ptr %33, align 4, !tbaa !31
  store float %34, ptr %13, align 4, !tbaa !31
  call void @llvm.lifetime.start.p0(i64 4, ptr %14) #3
  %35 = load ptr, ptr %9, align 8, !tbaa !29
  %36 = getelementptr inbounds float, ptr %35, i64 2
  %37 = load float, ptr %36, align 4, !tbaa !31
  store float %37, ptr %14, align 4, !tbaa !31
  call void @llvm.lifetime.start.p0(i64 4, ptr %15) #3
  %38 = load float, ptr %12, align 4, !tbaa !31
  %39 = load float, ptr %13, align 4, !tbaa !31
  %40 = load float, ptr %14, align 4, !tbaa !31
  %41 = getelementptr inbounds nuw %"class.OpenColorIO_v2_5dev::Renderer_ACES_RedMod10_Fwd", ptr %20, i32 0, i32 3
  %42 = load float, ptr %41, align 8, !tbaa !44
  %43 = call noundef float @_ZN19OpenColorIO_v2_5dev13CalcHueWeightEffff(float noundef %38, float noundef %39, float noundef %40, float noundef %42)
  store float %43, ptr %15, align 4, !tbaa !31
  %44 = load float, ptr %15, align 4, !tbaa !31
  %45 = fcmp ogt float %44, 0.000000e+00
  br i1 %45, label %46, label %95

46:                                               ; preds = %28
  call void @llvm.lifetime.start.p0(i64 4, ptr %16) #3
  %47 = load float, ptr %13, align 4, !tbaa !31
  %48 = load float, ptr %14, align 4, !tbaa !31
  %49 = fcmp olt float %47, %48
  br i1 %49, label %50, label %52

50:                                               ; preds = %46
  %51 = load float, ptr %13, align 4, !tbaa !31
  br label %54

52:                                               ; preds = %46
  %53 = load float, ptr %14, align 4, !tbaa !31
  br label %54

54:                                               ; preds = %52, %50
  %55 = phi float [ %51, %50 ], [ %53, %52 ]
  store float %55, ptr %16, align 4, !tbaa !31
  call void @llvm.lifetime.start.p0(i64 4, ptr %17) #3
  %56 = load float, ptr %15, align 4, !tbaa !31
  %57 = getelementptr inbounds nuw %"class.OpenColorIO_v2_5dev::Renderer_ACES_RedMod10_Fwd", ptr %20, i32 0, i32 1
  %58 = load float, ptr %57, align 8, !tbaa !41
  %59 = call float @llvm.fmuladd.f32(float %56, float %58, float -1.000000e+00)
  store float %59, ptr %17, align 4, !tbaa !31
  call void @llvm.lifetime.start.p0(i64 4, ptr %18) #3
  %60 = load float, ptr %12, align 4, !tbaa !31
  %61 = load float, ptr %15, align 4, !tbaa !31
  %62 = getelementptr inbounds nuw %"class.OpenColorIO_v2_5dev::Renderer_ACES_RedMod10_Fwd", ptr %20, i32 0, i32 2
  %63 = load float, ptr %62, align 4, !tbaa !43
  %64 = load float, ptr %16, align 4, !tbaa !31
  %65 = fadd float %63, %64
  %66 = fmul float %61, %65
  %67 = getelementptr inbounds nuw %"class.OpenColorIO_v2_5dev::Renderer_ACES_RedMod10_Fwd", ptr %20, i32 0, i32 1
  %68 = load float, ptr %67, align 8, !tbaa !41
  %69 = fneg float %66
  %70 = call float @llvm.fmuladd.f32(float %69, float %68, float %60)
  store float %70, ptr %18, align 4, !tbaa !31
  call void @llvm.lifetime.start.p0(i64 4, ptr %19) #3
  %71 = load float, ptr %15, align 4, !tbaa !31
  %72 = getelementptr inbounds nuw %"class.OpenColorIO_v2_5dev::Renderer_ACES_RedMod10_Fwd", ptr %20, i32 0, i32 2
  %73 = load float, ptr %72, align 4, !tbaa !43
  %74 = fmul float %71, %73
  %75 = load float, ptr %16, align 4, !tbaa !31
  %76 = fmul float %74, %75
  %77 = getelementptr inbounds nuw %"class.OpenColorIO_v2_5dev::Renderer_ACES_RedMod10_Fwd", ptr %20, i32 0, i32 1
  %78 = load float, ptr %77, align 8, !tbaa !41
  %79 = fmul float %76, %78
  store float %79, ptr %19, align 4, !tbaa !31
  %80 = load float, ptr %18, align 4, !tbaa !31
  %81 = fneg float %80
  %82 = load float, ptr %18, align 4, !tbaa !31
  %83 = load float, ptr %18, align 4, !tbaa !31
  %84 = load float, ptr %17, align 4, !tbaa !31
  %85 = fmul float 4.000000e+00, %84
  %86 = load float, ptr %19, align 4, !tbaa !31
  %87 = fmul float %85, %86
  %88 = fneg float %87
  %89 = call float @llvm.fmuladd.f32(float %82, float %83, float %88)
  %90 = call noundef float @_ZSt4sqrtf(float noundef %89)
  %91 = fsub float %81, %90
  %92 = load float, ptr %17, align 4, !tbaa !31
  %93 = fmul float 2.000000e+00, %92
  %94 = fdiv float %91, %93
  store float %94, ptr %12, align 4, !tbaa !31
  call void @llvm.lifetime.end.p0(i64 4, ptr %19) #3
  call void @llvm.lifetime.end.p0(i64 4, ptr %18) #3
  call void @llvm.lifetime.end.p0(i64 4, ptr %17) #3
  call void @llvm.lifetime.end.p0(i64 4, ptr %16) #3
  br label %95

95:                                               ; preds = %54, %28
  %96 = load float, ptr %12, align 4, !tbaa !31
  %97 = load ptr, ptr %10, align 8, !tbaa !29
  %98 = getelementptr inbounds float, ptr %97, i64 0
  store float %96, ptr %98, align 4, !tbaa !31
  %99 = load float, ptr %13, align 4, !tbaa !31
  %100 = load ptr, ptr %10, align 8, !tbaa !29
  %101 = getelementptr inbounds float, ptr %100, i64 1
  store float %99, ptr %101, align 4, !tbaa !31
  %102 = load float, ptr %14, align 4, !tbaa !31
  %103 = load ptr, ptr %10, align 8, !tbaa !29
  %104 = getelementptr inbounds float, ptr %103, i64 2
  store float %102, ptr %104, align 4, !tbaa !31
  %105 = load ptr, ptr %9, align 8, !tbaa !29
  %106 = getelementptr inbounds float, ptr %105, i64 3
  %107 = load float, ptr %106, align 4, !tbaa !31
  %108 = load ptr, ptr %10, align 8, !tbaa !29
  %109 = getelementptr inbounds float, ptr %108, i64 3
  store float %107, ptr %109, align 4, !tbaa !31
  %110 = load ptr, ptr %9, align 8, !tbaa !29
  %111 = getelementptr inbounds float, ptr %110, i64 4
  store ptr %111, ptr %9, align 8, !tbaa !29
  %112 = load ptr, ptr %10, align 8, !tbaa !29
  %113 = getelementptr inbounds float, ptr %112, i64 4
  store ptr %113, ptr %10, align 8, !tbaa !29
  call void @llvm.lifetime.end.p0(i64 4, ptr %15) #3
  call void @llvm.lifetime.end.p0(i64 4, ptr %14) #3
  call void @llvm.lifetime.end.p0(i64 4, ptr %13) #3
  call void @llvm.lifetime.end.p0(i64 4, ptr %12) #3
  br label %114

114:                                              ; preds = %95
  %115 = load i64, ptr %11, align 8, !tbaa !27
  %116 = add nsw i64 %115, 1
  store i64 %116, ptr %11, align 8, !tbaa !27
  br label %23, !llvm.loop !48

117:                                              ; preds = %27
  call void @llvm.lifetime.end.p0(i64 8, ptr %10) #3
  call void @llvm.lifetime.end.p0(i64 8, ptr %9) #3
  ret void
}